; Function Attrs: nounwind uwtable
define void @_ZTv0_n24_N3zmq14plain_server_tD1Ev(ptr noundef %this) unnamed_addr #4 align 2 {
entry:
  %0 = load ptr, ptr %this, align 8
  %1 = getelementptr inbounds i8, ptr %0, i64 -24
  %2 = load i64, ptr %1, align 8
  %3 = getelementptr inbounds i8, ptr %this, i64 %2
  store ptr getelementptr inbounds ({ [7 x ptr], [19 x ptr] }, ptr @_ZTCN3zmq14plain_server_tE0_NS_12zap_client_tE, i64 0, i32 0, i64 3), ptr %3, align 8
  %add.ptr.i.i.i.i = getelementptr inbounds i8, ptr %3, i64 80
  store ptr getelementptr inbounds ({ [7 x ptr], [19 x ptr] }, ptr @_ZTCN3zmq14plain_server_tE0_NS_12zap_client_tE, i64 0, i32 1, i64 10), ptr %add.ptr.i.i.i.i, align 8
  %status_code.i.i.i.i = getelementptr inbounds i8, ptr %3, i64 40
  tail call void @_ZNSt7__cxx1112basic_stringIcSt11char_traitsIcESaIcEED1Ev(ptr noundef nonnull align 8 dereferenceable(32) %status_code.i.i.i.i) #13
  %peer_address.i.i.i.i = getelementptr inbounds i8, ptr %3, i64 8
  tail call void @_ZNSt7__cxx1112basic_stringIcSt11char_traitsIcESaIcEED1Ev(ptr noundef nonnull align 8 dereferenceable(32) %peer_address.i.i.i.i) #13
  tail call void @_ZN3zmq11mechanism_tD2Ev(ptr noundef nonnull align 8 dereferenceable(1488) %add.ptr.i.i.i.i) #13
  ret void
}